	.file	"strange_function_call.c"
	.text
	.section	.rodata
.LC0:
	.string	"jump to C."
	.text
	.globl	C
	.type	C, @function
C:
.LFB6:
	.cfi_startproc
	endbr64
	pushq	%rbp
	.cfi_def_cfa_offset 16
	.cfi_offset 6, -16
	movq	%rsp, %rbp
	.cfi_def_cfa_register 6
	leaq	.LC0(%rip), %rax
	movq	%rax, %rdi
	call	puts@PLT
	movl	$-1, %edi
	call	exit@PLT
	.cfi_endproc
.LFE6:
	.size	C, .-C
	.globl	B
	.type	B, @function
B:
.LFB7:
	.cfi_startproc
	endbr64
	pushq	%rbp
	.cfi_def_cfa_offset 16
	.cfi_offset 6, -16
	movq	%rsp, %rbp
	.cfi_def_cfa_register 6
	subq	$16, %rsp
	movq	%fs:40, %rax
	movq	%rax, -8(%rbp)
	xorl	%eax, %eax
	movq	$0, -16(%rbp)
	leaq	-16(%rbp), %rax
	movq	%rax, -16(%rbp)
	movq	-16(%rbp), %rax
	addq	$16, %rax
	leaq	C(%rip), %rdx
	movq	%rdx, (%rax)
	nop
	movq	-8(%rbp), %rax
	subq	%fs:40, %rax
	je	.L3
	call	__stack_chk_fail@PLT
.L3:
	leave
	.cfi_def_cfa 7, 8
	ret
	.cfi_endproc
.LFE7:
	.size	B, .-B
	.globl	A
	.type	A, @function
A:
.LFB8:
	.cfi_startproc
	endbr64
	pushq	%rbp
	.cfi_def_cfa_offset 16
	.cfi_offset 6, -16
	movq	%rsp, %rbp
	.cfi_def_cfa_register 6
	movl	$0, %eax
	call	B
	nop
	popq	%rbp
	.cfi_def_cfa 7, 8
	ret
	.cfi_endproc
.LFE8:
	.size	A, .-A
	.globl	main
	.type	main, @function
main:
.LFB9:
	.cfi_startproc
	endbr64
	pushq	%rbp
	.cfi_def_cfa_offset 16
	.cfi_offset 6, -16
	movq	%rsp, %rbp
	.cfi_def_cfa_register 6
	movl	$0, %eax
	call	A
	movl	$0, %eax
	popq	%rbp
	.cfi_def_cfa 7, 8
	ret
	.cfi_endproc
.LFE9:
	.size	main, .-main
	.ident	"GCC: (Ubuntu 13.2.0-23ubuntu4) 13.2.0"
	.section	.note.GNU-stack,"",@progbits
	.section	.note.gnu.property,"a"
	.align 8
	.long	1f - 0f
	.long	4f - 1f
	.long	5
0:
	.string	"GNU"
1:
	.align 8
	.long	0xc0000002
	.long	3f - 2f
2:
	.long	0x3
3:
	.align 8
4:
